target datalayout = "e-m:e-p270:32:32-p271:32:32-p272:64:64-i64:64-i128:128-f80:128-n8:16:32:64-S128"
target triple = "x86_64-unknown-linux-gnu"

%"class.boost::detail::shared_count" = type { ptr }
%"class.QuantLib::DayCounter" = type { %"class.boost::shared_ptr.17" }
%"class.boost::shared_ptr.17" = type { ptr, %"class.boost::detail::shared_count" }
%"class.QuantLib::Date" = type { i64 }
%class.anon = type { ptr, double }
%"class.boost::shared_ptr.40" = type { ptr, %"class.boost::detail::shared_count" }
%"class.QuantLib::InterestRate" = type { double, %"class.QuantLib::DayCounter", i32, i8, double }

@.str.9 = private unnamed_addr constant [8 x i8] c"px != 0\00", align 1
@.str.10 = private unnamed_addr constant [102 x i8] c"generated/home/dtcxzyw/WorkSpace/SDK/vcpkg/installed/x64-linux/include/boost/smart_ptr/shared_ptr.hpp\00", align 1
@__PRETTY_FUNCTION__._ZNK5boost10shared_ptrIN8QuantLib18YieldTermStructureEEptEv = private unnamed_addr constant [153 x i8] c"typename boost::detail::sp_member_access<T>::type boost::shared_ptr<QuantLib::YieldTermStructure>::operator->() const [T = QuantLib::YieldTermStructure]\00", align 1

; Function Attrs: inlinehint mustprogress nounwind uwtable
define linkonce_odr void @_ZN8QuantLib12InterestRateD2Ev(ptr noundef nonnull align 8 dereferenceable(40) %this) unnamed_addr #5 comdat align 2 {
entry:
  %this.addr = alloca ptr, align 8
  store ptr %this, ptr %this.addr, align 8, !tbaa !3
  %this1 = load ptr, ptr %this.addr, align 8
  %dc_ = getelementptr inbounds nuw %"class.QuantLib::InterestRate", ptr %this1, i32 0, i32 1
  call void @_ZN8QuantLib10DayCounterD2Ev(ptr noundef nonnull align 8 dereferenceable(16) %dc_) #17
  ret void
}

; Function Attrs: mustprogress nounwind uwtable
define linkonce_odr noundef double @_ZNK8QuantLib12InterestRatecvdEv(ptr noundef nonnull align 8 dereferenceable(40) %this) #0 comdat align 2 {
entry:
  %this.addr = alloca ptr, align 8
  store ptr %this, ptr %this.addr, align 8, !tbaa !3
  %this1 = load ptr, ptr %this.addr, align 8
  %r_ = getelementptr inbounds nuw %"class.QuantLib::InterestRate", ptr %this1, i32 0, i32 0
  %0 = load double, ptr %r_, align 8, !tbaa !131
  ret double %0
}

; Function Attrs: mustprogress uwtable
define linkonce_odr noundef ptr @_ZNK5boost10shared_ptrIN8QuantLib18YieldTermStructureEEptEv(ptr noundef nonnull align 8 dereferenceable(16) %this) #2 comdat align 2 {
entry:
  %this.addr = alloca ptr, align 8
  store ptr %this, ptr %this.addr, align 8, !tbaa !3
  %this1 = load ptr, ptr %this.addr, align 8
  %px = getelementptr inbounds nuw %"class.boost::shared_ptr.40", ptr %this1, i32 0, i32 0
  %0 = load ptr, ptr %px, align 8, !tbaa !72
  %cmp = icmp ne ptr %0, null
  %lnot = xor i1 %cmp, true
  %lnot2 = xor i1 %lnot, true
  %conv = zext i1 %lnot2 to i64
  %expval = call i64 @llvm.expect.i64(i64 %conv, i64 1)
  %tobool = icmp ne i64 %expval, 0
  br i1 %tobool, label %cond.true, label %cond.false

cond.true:                                        ; preds = %entry
  br label %cond.end

cond.false:                                       ; preds = %entry
  call void @_ZN5boost16assertion_failedEPKcS1_S1_l(ptr noundef @.str.9, ptr noundef @__PRETTY_FUNCTION__._ZNK5boost10shared_ptrIN8QuantLib18YieldTermStructureEEptEv, ptr noundef @.str.10, i64 noundef 784)
  br label %cond.end

cond.end:                                         ; preds = %cond.false, %cond.true
  %px3 = getelementptr inbounds nuw %"class.boost::shared_ptr.40", ptr %this1, i32 0, i32 0
  %1 = load ptr, ptr %px3, align 8, !tbaa !72
  ret ptr %1
}

; Function Attrs: inlinehint mustprogress uwtable
define internal noundef double @"_ZZN8QuantLib32DiscretizedCallableFixedRateBondC1ERKNS_12CallableBond9argumentsERKNS_6HandleINS_18YieldTermStructureEEEENK3$_0clENS_4DateE"(ptr noundef nonnull align 8 dereferenceable(16) %this, i64 %date.coerce) #3 align 2 personality ptr @__gxx_personality_v0 {
entry:
  %date = alloca %"class.QuantLib::Date", align 8
  %this.addr = alloca ptr, align 8
  %time = alloca double, align 8
  %zeroRateInclSpread = alloca double, align 8
  %ref.tmp = alloca %"class.QuantLib::InterestRate", align 8
  %ref.tmp6 = alloca %"class.QuantLib::DayCounter", align 8
  %exn.slot = alloca ptr, align 8
  %ehselector.slot = alloca i32, align 4
  %df = alloca double, align 8
  %coerce.dive = getelementptr inbounds nuw %"class.QuantLib::Date", ptr %date, i32 0, i32 0
  store i64 %date.coerce, ptr %coerce.dive, align 8
  store ptr %this, ptr %this.addr, align 8, !tbaa !3
  %this1 = load ptr, ptr %this.addr, align 8
  call void @llvm.lifetime.start.p0(i64 8, ptr %time) #17
  %0 = getelementptr inbounds nuw %class.anon, ptr %this1, i32 0, i32 0
  %1 = load ptr, ptr %0, align 8, !tbaa !80
  %call = call noundef nonnull align 8 dereferenceable(16) ptr @_ZNK8QuantLib6HandleINS_18YieldTermStructureEEptEv(ptr noundef nonnull align 8 dereferenceable(16) %1)
  %call2 = call noundef ptr @_ZNK5boost10shared_ptrIN8QuantLib18YieldTermStructureEEptEv(ptr noundef nonnull align 8 dereferenceable(16) %call)
  %call3 = call noundef double @_ZNK8QuantLib13TermStructure17timeFromReferenceERKNS_4DateE(ptr noundef nonnull align 8 dereferenceable(64) %call2, ptr noundef nonnull align 8 dereferenceable(8) %date)
  store double %call3, ptr %time, align 8, !tbaa !11
  call void @llvm.lifetime.start.p0(i64 8, ptr %zeroRateInclSpread) #17
  call void @llvm.lifetime.start.p0(i64 40, ptr %ref.tmp) #17
  %2 = getelementptr inbounds nuw %class.anon, ptr %this1, i32 0, i32 0
  %3 = load ptr, ptr %2, align 8, !tbaa !80
  %call4 = call noundef nonnull align 8 dereferenceable(16) ptr @_ZNK8QuantLib6HandleINS_18YieldTermStructureEEptEv(ptr noundef nonnull align 8 dereferenceable(16) %3)
  %call5 = call noundef ptr @_ZNK5boost10shared_ptrIN8QuantLib18YieldTermStructureEEptEv(ptr noundef nonnull align 8 dereferenceable(16) %call4)
  call void @llvm.lifetime.start.p0(i64 16, ptr %ref.tmp6) #17
  %4 = getelementptr inbounds nuw %class.anon, ptr %this1, i32 0, i32 0
  %5 = load ptr, ptr %4, align 8, !tbaa !80
  %call7 = call noundef nonnull align 8 dereferenceable(16) ptr @_ZNK8QuantLib6HandleINS_18YieldTermStructureEEptEv(ptr noundef nonnull align 8 dereferenceable(16) %5)
  %call8 = call noundef ptr @_ZNK5boost10shared_ptrIN8QuantLib18YieldTermStructureEEptEv(ptr noundef nonnull align 8 dereferenceable(16) %call7)
  %vtable = load ptr, ptr %call8, align 8, !tbaa !7
  %vfn = getelementptr inbounds ptr, ptr %vtable, i64 2
  %6 = load ptr, ptr %vfn, align 8
  call void %6(ptr dead_on_unwind writable sret(%"class.QuantLib::DayCounter") align 8 %ref.tmp6, ptr noundef nonnull align 8 dereferenceable(64) %call8)
  invoke void @_ZNK8QuantLib18YieldTermStructure8zeroRateERKNS_4DateERKNS_10DayCounterENS_11CompoundingENS_9FrequencyEb(ptr dead_on_unwind writable sret(%"class.QuantLib::InterestRate") align 8 %ref.tmp, ptr noundef nonnull align 8 dereferenceable(152) %call5, ptr noundef nonnull align 8 dereferenceable(8) %date, ptr noundef nonnull align 8 dereferenceable(16) %ref.tmp6, i32 noundef 2, i32 noundef -1, i1 noundef zeroext false)
          to label %invoke.cont unwind label %lpad

invoke.cont:                                      ; preds = %entry
  %call11 = invoke noundef double @_ZNK8QuantLib12InterestRatecvdEv(ptr noundef nonnull align 8 dereferenceable(40) %ref.tmp)
          to label %invoke.cont10 unwind label %lpad9

invoke.cont10:                                    ; preds = %invoke.cont
  %7 = getelementptr inbounds nuw %class.anon, ptr %this1, i32 0, i32 1
  %8 = load double, ptr %7, align 8, !tbaa !61
  %add = fadd double %call11, %8
  call void @_ZN8QuantLib12InterestRateD2Ev(ptr noundef nonnull align 8 dereferenceable(40) %ref.tmp) #17
  call void @_ZN8QuantLib10DayCounterD2Ev(ptr noundef nonnull align 8 dereferenceable(16) %ref.tmp6) #17
  call void @llvm.lifetime.end.p0(i64 16, ptr %ref.tmp6) #17
  call void @llvm.lifetime.end.p0(i64 40, ptr %ref.tmp) #17
  store double %add, ptr %zeroRateInclSpread, align 8, !tbaa !11
  call void @llvm.lifetime.start.p0(i64 8, ptr %df) #17
  %9 = load double, ptr %zeroRateInclSpread, align 8, !tbaa !11
  %fneg = fneg double %9
  %10 = load double, ptr %time, align 8, !tbaa !11
  %mul = fmul double %fneg, %10
  %call14 = call double @exp(double noundef %mul) #17, !tbaa !81
  store double %call14, ptr %df, align 8, !tbaa !11
  %11 = load double, ptr %df, align 8, !tbaa !11
  call void @llvm.lifetime.end.p0(i64 8, ptr %df) #17
  call void @llvm.lifetime.end.p0(i64 8, ptr %zeroRateInclSpread) #17
  call void @llvm.lifetime.end.p0(i64 8, ptr %time) #17
  ret double %11

lpad:                                             ; preds = %entry
  %12 = landingpad { ptr, i32 }
          cleanup
  %13 = extractvalue { ptr, i32 } %12, 0
  store ptr %13, ptr %exn.slot, align 8
  %14 = extractvalue { ptr, i32 } %12, 1
  store i32 %14, ptr %ehselector.slot, align 4
  br label %ehcleanup

lpad9:                                            ; preds = %invoke.cont
  %15 = landingpad { ptr, i32 }
          cleanup
  %16 = extractvalue { ptr, i32 } %15, 0
  store ptr %16, ptr %exn.slot, align 8
  %17 = extractvalue { ptr, i32 } %15, 1
  store i32 %17, ptr %ehselector.slot, align 4
  call void @_ZN8QuantLib12InterestRateD2Ev(ptr noundef nonnull align 8 dereferenceable(40) %ref.tmp) #17
  br label %ehcleanup

ehcleanup:                                        ; preds = %lpad9, %lpad
  call void @_ZN8QuantLib10DayCounterD2Ev(ptr noundef nonnull align 8 dereferenceable(16) %ref.tmp6) #17
  call void @llvm.lifetime.end.p0(i64 16, ptr %ref.tmp6) #17
  call void @llvm.lifetime.end.p0(i64 40, ptr %ref.tmp) #17
  call void @llvm.lifetime.end.p0(i64 8, ptr %zeroRateInclSpread) #17
  call void @llvm.lifetime.end.p0(i64 8, ptr %time) #17
  br label %eh.resume

eh.resume:                                        ; preds = %ehcleanup
  %exn = load ptr, ptr %exn.slot, align 8
  %sel = load i32, ptr %ehselector.slot, align 4
  %lpad.val = insertvalue { ptr, i32 } poison, ptr %exn, 0
  %lpad.val17 = insertvalue { ptr, i32 } %lpad.val, i32 %sel, 1
  resume { ptr, i32 } %lpad.val17
}