; Function Attrs: inlinehint mustprogress uwtable
define internal fastcc noundef double @"_ZZN8QuantLib32DiscretizedCallableFixedRateBondC1ERKNS_12CallableBond9argumentsERKNS_6HandleINS_18YieldTermStructureEEEENK3$_0clENS_4DateE"(ptr nocapture noundef nonnull readonly align 8 dereferenceable(16) %this, i64 %date.coerce) unnamed_addr #9 align 2 personality ptr @__gxx_personality_v0 {
entry:
  %date = alloca %"class.QuantLib::Date", align 8
  %ref.tmp = alloca %"class.QuantLib::InterestRate", align 8
  %ref.tmp6 = alloca %"class.QuantLib::DayCounter", align 8
  store i64 %date.coerce, ptr %date, align 8
  %0 = load ptr, ptr %this, align 8, !tbaa !105
  %call = tail call noundef nonnull align 8 dereferenceable(16) ptr @_ZNK8QuantLib6HandleINS_18YieldTermStructureEEptEv(ptr noundef nonnull align 8 dereferenceable(16) %0)
  %1 = load ptr, ptr %call, align 8, !tbaa !36
  %cmp.not.i = icmp eq ptr %1, null
  br i1 %cmp.not.i, label %cond.false.i, label %_ZNK5boost10shared_ptrIN8QuantLib18YieldTermStructureEEptEv.exit, !prof !33

cond.false.i:                                     ; preds = %entry
  tail call void @_ZN5boost16assertion_failedEPKcS1_S1_l(ptr noundef nonnull @.str.9, ptr noundef nonnull @__PRETTY_FUNCTION__._ZNK5boost10shared_ptrIN8QuantLib18YieldTermStructureEEptEv, ptr noundef nonnull @.str.10, i64 noundef 784)
  %.pre.i = load ptr, ptr %call, align 8, !tbaa !36
  br label %_ZNK5boost10shared_ptrIN8QuantLib18YieldTermStructureEEptEv.exit

_ZNK5boost10shared_ptrIN8QuantLib18YieldTermStructureEEptEv.exit: ; preds = %entry, %cond.false.i
  %2 = phi ptr [ %1, %entry ], [ %.pre.i, %cond.false.i ]
  %call3 = call noundef double @_ZNK8QuantLib13TermStructure17timeFromReferenceERKNS_4DateE(ptr noundef nonnull align 8 dereferenceable(64) %2, ptr noundef nonnull align 8 dereferenceable(8) %date)
  call void @llvm.lifetime.start.p0(i64 40, ptr nonnull %ref.tmp) #23
  %3 = load ptr, ptr %this, align 8, !tbaa !105
  %call4 = call noundef nonnull align 8 dereferenceable(16) ptr @_ZNK8QuantLib6HandleINS_18YieldTermStructureEEptEv(ptr noundef nonnull align 8 dereferenceable(16) %3)
  %4 = load ptr, ptr %call4, align 8, !tbaa !36
  %cmp.not.i1 = icmp eq ptr %4, null
  br i1 %cmp.not.i1, label %cond.false.i2, label %_ZNK5boost10shared_ptrIN8QuantLib18YieldTermStructureEEptEv.exit4, !prof !33

cond.false.i2:                                    ; preds = %_ZNK5boost10shared_ptrIN8QuantLib18YieldTermStructureEEptEv.exit
  call void @_ZN5boost16assertion_failedEPKcS1_S1_l(ptr noundef nonnull @.str.9, ptr noundef nonnull @__PRETTY_FUNCTION__._ZNK5boost10shared_ptrIN8QuantLib18YieldTermStructureEEptEv, ptr noundef nonnull @.str.10, i64 noundef 784)
  %.pre.i3 = load ptr, ptr %call4, align 8, !tbaa !36
  br label %_ZNK5boost10shared_ptrIN8QuantLib18YieldTermStructureEEptEv.exit4

_ZNK5boost10shared_ptrIN8QuantLib18YieldTermStructureEEptEv.exit4: ; preds = %_ZNK5boost10shared_ptrIN8QuantLib18YieldTermStructureEEptEv.exit, %cond.false.i2
  %5 = phi ptr [ %4, %_ZNK5boost10shared_ptrIN8QuantLib18YieldTermStructureEEptEv.exit ], [ %.pre.i3, %cond.false.i2 ]
  call void @llvm.lifetime.start.p0(i64 16, ptr nonnull %ref.tmp6) #23
  %6 = load ptr, ptr %this, align 8, !tbaa !105
  %call7 = call noundef nonnull align 8 dereferenceable(16) ptr @_ZNK8QuantLib6HandleINS_18YieldTermStructureEEptEv(ptr noundef nonnull align 8 dereferenceable(16) %6)
  %7 = load ptr, ptr %call7, align 8, !tbaa !36
  %cmp.not.i5 = icmp eq ptr %7, null
  br i1 %cmp.not.i5, label %cond.false.i6, label %_ZNK5boost10shared_ptrIN8QuantLib18YieldTermStructureEEptEv.exit8, !prof !33

cond.false.i6:                                    ; preds = %_ZNK5boost10shared_ptrIN8QuantLib18YieldTermStructureEEptEv.exit4
  call void @_ZN5boost16assertion_failedEPKcS1_S1_l(ptr noundef nonnull @.str.9, ptr noundef nonnull @__PRETTY_FUNCTION__._ZNK5boost10shared_ptrIN8QuantLib18YieldTermStructureEEptEv, ptr noundef nonnull @.str.10, i64 noundef 784)
  %.pre.i7 = load ptr, ptr %call7, align 8, !tbaa !36
  br label %_ZNK5boost10shared_ptrIN8QuantLib18YieldTermStructureEEptEv.exit8

_ZNK5boost10shared_ptrIN8QuantLib18YieldTermStructureEEptEv.exit8: ; preds = %_ZNK5boost10shared_ptrIN8QuantLib18YieldTermStructureEEptEv.exit4, %cond.false.i6
  %8 = phi ptr [ %7, %_ZNK5boost10shared_ptrIN8QuantLib18YieldTermStructureEEptEv.exit4 ], [ %.pre.i7, %cond.false.i6 ]
  %vtable = load ptr, ptr %8, align 8, !tbaa !14
  %vfn = getelementptr inbounds i8, ptr %vtable, i64 16
  %9 = load ptr, ptr %vfn, align 8
  call void %9(ptr dead_on_unwind nonnull writable sret(%"class.QuantLib::DayCounter") align 8 %ref.tmp6, ptr noundef nonnull align 8 dereferenceable(64) %8)
  invoke void @_ZNK8QuantLib18YieldTermStructure8zeroRateERKNS_4DateERKNS_10DayCounterENS_11CompoundingENS_9FrequencyEb(ptr dead_on_unwind nonnull writable sret(%"class.QuantLib::InterestRate") align 8 %ref.tmp, ptr noundef nonnull align 8 dereferenceable(152) %5, ptr noundef nonnull align 8 dereferenceable(8) %date, ptr noundef nonnull align 8 dereferenceable(16) %ref.tmp6, i32 noundef 2, i32 noundef -1, i1 noundef zeroext false)
          to label %invoke.cont unwind label %lpad

invoke.cont:                                      ; preds = %_ZNK5boost10shared_ptrIN8QuantLib18YieldTermStructureEEptEv.exit8
  %10 = load double, ptr %ref.tmp, align 8, !tbaa !106
  %11 = getelementptr inbounds nuw i8, ptr %this, i64 8
  %12 = load double, ptr %11, align 8, !tbaa !80
  %pn.i.i.i = getelementptr inbounds nuw i8, ptr %ref.tmp, i64 16
  %13 = load ptr, ptr %pn.i.i.i, align 8, !tbaa !16
  %cmp.not.i.i.i.i = icmp eq ptr %13, null
  br i1 %cmp.not.i.i.i.i, label %_ZN8QuantLib12InterestRateD2Ev.exit, label %if.then.i.i.i.i

if.then.i.i.i.i:                                  ; preds = %invoke.cont
  %use_count_.i.i.i.i.i = getelementptr inbounds nuw i8, ptr %13, i64 8
  %14 = atomicrmw sub ptr %use_count_.i.i.i.i.i, i32 1 acq_rel, align 4
  %cmp.i.i.i.i.i = icmp eq i32 %14, 1
  br i1 %cmp.i.i.i.i.i, label %if.then.i.i.i.i.i, label %_ZN8QuantLib12InterestRateD2Ev.exit

if.then.i.i.i.i.i:                                ; preds = %if.then.i.i.i.i
  %vtable.i.i.i.i.i = load ptr, ptr %13, align 8, !tbaa !14
  %vfn.i.i.i.i.i = getelementptr inbounds i8, ptr %vtable.i.i.i.i.i, i64 16
  %15 = load ptr, ptr %vfn.i.i.i.i.i, align 8
  invoke void %15(ptr noundef nonnull align 8 dereferenceable(16) %13)
          to label %.noexc.i.i.i.i unwind label %terminate.lpad.i.i.i.i

.noexc.i.i.i.i:                                   ; preds = %if.then.i.i.i.i.i
  %weak_count_.i.i.i.i.i.i = getelementptr inbounds nuw i8, ptr %13, i64 12
  %16 = atomicrmw sub ptr %weak_count_.i.i.i.i.i.i, i32 1 acq_rel, align 4
  %cmp.i.i.i.i.i.i = icmp eq i32 %16, 1
  br i1 %cmp.i.i.i.i.i.i, label %if.then.i.i.i.i.i.i, label %_ZN8QuantLib12InterestRateD2Ev.exit

if.then.i.i.i.i.i.i:                              ; preds = %.noexc.i.i.i.i
  %vtable.i.i.i.i.i.i = load ptr, ptr %13, align 8, !tbaa !14
  %vfn.i.i.i.i.i.i = getelementptr inbounds i8, ptr %vtable.i.i.i.i.i.i, i64 24
  %17 = load ptr, ptr %vfn.i.i.i.i.i.i, align 8
  invoke void %17(ptr noundef nonnull align 8 dereferenceable(16) %13)
          to label %_ZN8QuantLib12InterestRateD2Ev.exit unwind label %terminate.lpad.i.i.i.i

terminate.lpad.i.i.i.i:                           ; preds = %if.then.i.i.i.i.i.i, %if.then.i.i.i.i.i
  %18 = landingpad { ptr, i32 }
          catch ptr null
  %19 = extractvalue { ptr, i32 } %18, 0
  call void @__clang_call_terminate(ptr %19) #24
  unreachable

_ZN8QuantLib12InterestRateD2Ev.exit:              ; preds = %invoke.cont, %if.then.i.i.i.i, %.noexc.i.i.i.i, %if.then.i.i.i.i.i.i
  %pn.i.i = getelementptr inbounds nuw i8, ptr %ref.tmp6, i64 8
  %20 = load ptr, ptr %pn.i.i, align 8, !tbaa !16
  %cmp.not.i.i.i = icmp eq ptr %20, null
  br i1 %cmp.not.i.i.i, label %_ZN8QuantLib10DayCounterD2Ev.exit, label %if.then.i.i.i

if.then.i.i.i:                                    ; preds = %_ZN8QuantLib12InterestRateD2Ev.exit
  %use_count_.i.i.i.i = getelementptr inbounds nuw i8, ptr %20, i64 8
  %21 = atomicrmw sub ptr %use_count_.i.i.i.i, i32 1 acq_rel, align 4
  %cmp.i.i.i.i = icmp eq i32 %21, 1
  br i1 %cmp.i.i.i.i, label %if.then.i.i.i.i9, label %_ZN8QuantLib10DayCounterD2Ev.exit

if.then.i.i.i.i9:                                 ; preds = %if.then.i.i.i
  %vtable.i.i.i.i = load ptr, ptr %20, align 8, !tbaa !14
  %vfn.i.i.i.i = getelementptr inbounds i8, ptr %vtable.i.i.i.i, i64 16
  %22 = load ptr, ptr %vfn.i.i.i.i, align 8
  invoke void %22(ptr noundef nonnull align 8 dereferenceable(16) %20)
          to label %.noexc.i.i.i unwind label %terminate.lpad.i.i.i

.noexc.i.i.i:                                     ; preds = %if.then.i.i.i.i9
  %weak_count_.i.i.i.i.i = getelementptr inbounds nuw i8, ptr %20, i64 12
  %23 = atomicrmw sub ptr %weak_count_.i.i.i.i.i, i32 1 acq_rel, align 4
  %cmp.i.i.i.i.i10 = icmp eq i32 %23, 1
  br i1 %cmp.i.i.i.i.i10, label %if.then.i.i.i.i.i11, label %_ZN8QuantLib10DayCounterD2Ev.exit

if.then.i.i.i.i.i11:                              ; preds = %.noexc.i.i.i
  %vtable.i.i.i.i.i12 = load ptr, ptr %20, align 8, !tbaa !14
  %vfn.i.i.i.i.i13 = getelementptr inbounds i8, ptr %vtable.i.i.i.i.i12, i64 24
  %24 = load ptr, ptr %vfn.i.i.i.i.i13, align 8
  invoke void %24(ptr noundef nonnull align 8 dereferenceable(16) %20)
          to label %_ZN8QuantLib10DayCounterD2Ev.exit unwind label %terminate.lpad.i.i.i

terminate.lpad.i.i.i:                             ; preds = %if.then.i.i.i.i.i11, %if.then.i.i.i.i9
  %25 = landingpad { ptr, i32 }
          catch ptr null
  %26 = extractvalue { ptr, i32 } %25, 0
  call void @__clang_call_terminate(ptr %26) #24
  unreachable

_ZN8QuantLib10DayCounterD2Ev.exit:                ; preds = %_ZN8QuantLib12InterestRateD2Ev.exit, %if.then.i.i.i, %.noexc.i.i.i, %if.then.i.i.i.i.i11
  %add = fadd double %10, %12
  call void @llvm.lifetime.end.p0(i64 16, ptr nonnull %ref.tmp6) #23
  call void @llvm.lifetime.end.p0(i64 40, ptr nonnull %ref.tmp) #23
  %fneg = fneg double %add
  %mul = fmul double %call3, %fneg
  %call14 = call double @exp(double noundef %mul) #23, !tbaa !110
  ret double %call14

lpad:                                             ; preds = %_ZNK5boost10shared_ptrIN8QuantLib18YieldTermStructureEEptEv.exit8
  %27 = landingpad { ptr, i32 }
          cleanup
  call void @_ZN8QuantLib10DayCounterD2Ev(ptr noundef nonnull align 8 dereferenceable(16) %ref.tmp6) #23
  call void @llvm.lifetime.end.p0(i64 16, ptr nonnull %ref.tmp6) #23
  call void @llvm.lifetime.end.p0(i64 40, ptr nonnull %ref.tmp) #23
  resume { ptr, i32 } %27
}